(dp1
S'files'
p2
(dp3
S'_Users_arnold huanca_Eclipse_workspace_Sudoku_src_Main_validate'
p4
(dp5
S'index'
p6
(dp7
S'html_filename'
p8
S'_Users_arnold huanca_Eclipse_workspace_Sudoku_src_Main_validate.html'
p9
sS'name'
p10
S'D:\\Users\\arnold huanca\\Eclipse\\workspace\\Sudoku\\src\\Main\\validate'
p11
sS'nums'
p12
ccopy_reg
_reconstructor
p13
(ccoverage.results
Numbers
p14
c__builtin__
object
p15
NtRp16
(dp17
S'n_files'
p18
I1
sS'n_branches'
p19
I0
sS'n_statements'
p20
I11
sS'n_excluded'
p21
I0
sS'n_partial_branches'
p22
I0
sS'n_missing'
p23
I0
sS'n_missing_branches'
p24
I0
sbssS'hash'
p25
S'y\xcd\x9e\x18\xf5FR\x8b\xa8\x1e\x89)!\xd3\xe5\x0b'
p26
ssS'_Users_arnold huanca_Eclipse_workspace_Sudoku_src_File_file'
p27
(dp28
g6
(dp29
S'html_filename'
p30
S'_Users_arnold huanca_Eclipse_workspace_Sudoku_src_File_file.html'
p31
sS'name'
p32
S'D:\\Users\\arnold huanca\\Eclipse\\workspace\\Sudoku\\src\\File\\file'
p33
sS'nums'
p34
g13
(g14
g15
NtRp35
(dp36
g18
I1
sg19
I0
sg20
I24
sg21
I0
sg22
I0
sg23
I0
sg24
I0
sbssg25
S'\xcb<.\x8e\x82\xbe\x16\xe3Z\x90\xd4+\xf8\x9a\xf0\xee'
p37
ssS'_Users_arnold huanca_Eclipse_workspace_Sudoku_src_File_txt_file'
p38
(dp39
g6
(dp40
S'html_filename'
p41
S'_Users_arnold huanca_Eclipse_workspace_Sudoku_src_File_txt_file.html'
p42
sS'name'
p43
S'D:\\Users\\arnold huanca\\Eclipse\\workspace\\Sudoku\\src\\File\\txt_file'
p44
sS'nums'
p45
g13
(g14
g15
NtRp46
(dp47
g18
I1
sg19
I0
sg20
I36
sg21
I0
sg22
I0
sg23
I1
sg24
I0
sbssg25
S'\xa1\xb4\x80\x03e\xf2\xf0B\xeeS\x99\xf8E\xfe\x15\xc6'
p48
ssS'_Users_arnold huanca_Eclipse_workspace_Sudoku_src_File_config_file_xml'
p49
(dp50
g6
(dp51
g8
S'_Users_arnold huanca_Eclipse_workspace_Sudoku_src_File_config_file_xml.html'
p52
sg10
S'D:\\Users\\arnold huanca\\Eclipse\\workspace\\Sudoku\\src\\File\\config_file_xml'
p53
sg12
g13
(g14
g15
NtRp54
(dp55
g18
I1
sg19
I0
sg20
I39
sg21
I0
sg22
I0
sg23
I0
sg24
I0
sbssg25
S'\xc0fr\xf1\xfa.b7U\xf7n\xae\xbd\x1e\xa5\xb0'
p56
ssS'_eclipse_workspace_Sudoku_src_File_csv_file'
p57
(dp58
S'index'
p59
(dp60
S'html_filename'
p61
S'_eclipse_workspace_Sudoku_src_File_csv_file.html'
p62
sS'name'
p63
S'C:\\eclipse\\workspace\\Sudoku\\src\\File\\csv_file'
p64
sS'nums'
p65
g13
(g14
g15
NtRp66
(dp67
g18
I1
sg19
I0
sg20
I40
sg21
I0
sg22
I0
sg23
I0
sg24
I0
sbssS'hash'
p68
S'f\xd9\x02K\xd8\xcaqh\x83\x8dU\xc3T\xd5U\xf4'
p69
ssS'_eclipse_workspace_Sudoku_src_File_config_file'
p70
(dp71
g59
(dp72
S'html_filename'
p73
S'_eclipse_workspace_Sudoku_src_File_config_file.html'
p74
sS'name'
p75
S'C:\\eclipse\\workspace\\Sudoku\\src\\File\\config_file'
p76
sS'nums'
p77
g13
(g14
g15
NtRp78
(dp79
g18
I1
sg19
I0
sg20
I4
sg21
I0
sg22
I0
sg23
I0
sg24
I0
sbssg68
S'\x15\x91\x81ccf\xc8)6\xcfi\xf7b\xaf\xd6o'
p80
ssS'test_csv_file'
p81
(dp82
g59
(dp83
g73
S'test_csv_file.html'
p84
sg75
g81
sg77
g13
(g14
g15
NtRp85
(dp86
g18
I1
sg19
I0
sg20
I79
sg21
I0
sg22
I0
sg23
I1
sg24
I0
sbssg68
S'E8\xf3V\xdb\x89\xb8\xcc\xddynKm\xfb1='
p87
ssS'_eclipse_workspace_Sudoku_src_Main___init__'
p88
(dp89
g59
(dp90
g73
S'_eclipse_workspace_Sudoku_src_Main___init__.html'
p91
sg75
S'C:\\eclipse\\workspace\\Sudoku\\src\\Main\\__init__'
p92
sg77
g13
(g14
g15
NtRp93
(dp94
g18
I1
sg19
I0
sg20
I0
sg21
I0
sg22
I0
sg23
I0
sg24
I0
sbssg68
S'\xb0\xc8pN\xaf>\xa0\xbaz\x144\xe0A9\xb8?'
p95
ssS'__init__'
p96
(dp97
g59
(dp98
g73
S'__init__.html'
p99
sg75
g96
sg77
g13
(g14
g15
NtRp100
(dp101
g18
I1
sg19
I0
sg20
I0
sg21
I0
sg22
I0
sg23
I0
sg24
I0
sbssg68
S'\xb0\xc8pN\xaf>\xa0\xbaz\x144\xe0A9\xb8?'
p102
ssS'_eclipse_workspace_Sudoku_src_File_file'
p103
(dp104
g59
(dp105
S'html_filename'
p106
S'_eclipse_workspace_Sudoku_src_File_file.html'
p107
sS'name'
p108
S'C:\\eclipse\\workspace\\Sudoku\\src\\File\\file'
p109
sS'nums'
p110
g13
(g14
g15
NtRp111
(dp112
g18
I1
sg19
I0
sg20
I24
sg21
I0
sg22
I0
sg23
I0
sg24
I0
sbssg68
S'\xcb<.\x8e\x82\xbe\x16\xe3Z\x90\xd4+\xf8\x9a\xf0\xee'
p113
ssS'_eclipse_workspace_Sudoku_src_File_txt_file'
p114
(dp115
g59
(dp116
S'html_filename'
p117
S'_eclipse_workspace_Sudoku_src_File_txt_file.html'
p118
sS'name'
p119
S'C:\\eclipse\\workspace\\Sudoku\\src\\File\\txt_file'
p120
sS'nums'
p121
g13
(g14
g15
NtRp122
(dp123
g18
I1
sg19
I0
sg20
I33
sg21
I0
sg22
I0
sg23
I0
sg24
I0
sbssg68
S'\x07\x10\xe1U\x0b\x87\x90\n\x0e\xd8\x1c\x0f\x9f\xf9x\xad'
p124
ssS'test_config_file_xml'
p125
(dp126
g59
(dp127
g8
S'test_config_file_xml.html'
p128
sg10
S'test_config_file_xml'
p129
sg12
g13
(g14
g15
NtRp130
(dp131
g18
I1
sg19
I0
sg20
I25
sg21
I0
sg22
I0
sg23
I1
sg24
I0
sbssg68
S'\xe2\x8e\xf9\xca\xf4<\xb2[0\xae\xb0\xeb\x18\x94\xdc5'
p132
ssS'_Users_arnold huanca_Eclipse_workspace_Sudoku_src_File_csv_file'
p133
(dp134
g6
(dp135
S'html_filename'
p136
S'_Users_arnold huanca_Eclipse_workspace_Sudoku_src_File_csv_file.html'
p137
sS'name'
p138
S'D:\\Users\\arnold huanca\\Eclipse\\workspace\\Sudoku\\src\\File\\csv_file'
p139
sS'nums'
p140
g13
(g14
g15
NtRp141
(dp142
g18
I1
sg19
I0
sg20
I40
sg21
I0
sg22
I0
sg23
I0
sg24
I0
sbssg25
S'f\xd9\x02K\xd8\xcaqh\x83\x8dU\xc3T\xd5U\xf4'
p143
ssS'_Users_arnold huanca_Eclipse_workspace_Sudoku_src_File___init__'
p144
(dp145
g6
(dp146
g8
S'_Users_arnold huanca_Eclipse_workspace_Sudoku_src_File___init__.html'
p147
sg10
S'D:\\Users\\arnold huanca\\Eclipse\\workspace\\Sudoku\\src\\File\\__init__'
p148
sg12
g13
(g14
g15
NtRp149
(dp150
g18
I1
sg19
I0
sg20
I0
sg21
I0
sg22
I0
sg23
I0
sg24
I0
sbssg25
S'\xb0\xc8pN\xaf>\xa0\xbaz\x144\xe0A9\xb8?'
p151
ssS'test_norvig'
p152
(dp153
g59
(dp154
g30
S'test_norvig.html'
p155
sg32
S'test_norvig'
p156
sg34
g13
(g14
g15
NtRp157
(dp158
g18
I1
sg19
I0
sg20
I37
sg21
I0
sg22
I0
sg23
I1
sg24
I0
sbssg68
S'\x82c\x7fPE\x02\x9c\xdc\x01\x8d&\xdd0=\x19j'
p159
ssS'_Users_arnold huanca_Eclipse_workspace_Sudoku_src_Solver___init__'
p160
(dp161
g6
(dp162
g8
S'_Users_arnold huanca_Eclipse_workspace_Sudoku_src_Solver___init__.html'
p163
sg10
S'D:\\Users\\arnold huanca\\Eclipse\\workspace\\Sudoku\\src\\Solver\\__init__'
p164
sg12
g13
(g14
g15
NtRp165
(dp166
g18
I1
sg19
I0
sg20
I0
sg21
I0
sg22
I0
sg23
I0
sg24
I0
sbssg25
S'\xb0\xc8pN\xaf>\xa0\xbaz\x144\xe0A9\xb8?'
p167
ssS'_Users_arnold huanca_Eclipse_workspace_Sudoku_src_Solver_solve_algorithm'
p168
(dp169
g6
(dp170
S'html_filename'
p171
S'_Users_arnold huanca_Eclipse_workspace_Sudoku_src_Solver_solve_algorithm.html'
p172
sS'name'
p173
S'D:\\Users\\arnold huanca\\Eclipse\\workspace\\Sudoku\\src\\Solver\\solve_algorithm'
p174
sS'nums'
p175
g13
(g14
g15
NtRp176
(dp177
g18
I1
sg19
I0
sg20
I9
sg21
I0
sg22
I0
sg23
I0
sg24
I0
sbssg25
S'\xd6\xf0\xb2)\xfbC\x83&z;\x1f\x833\xb8\xe0\xe1'
p178
ssS'_Users_arnold huanca_Eclipse_workspace_Sudoku_src_File_config_file'
p179
(dp180
g6
(dp181
g8
S'_Users_arnold huanca_Eclipse_workspace_Sudoku_src_File_config_file.html'
p182
sg10
S'D:\\Users\\arnold huanca\\Eclipse\\workspace\\Sudoku\\src\\File\\config_file'
p183
sg12
g13
(g14
g15
NtRp184
(dp185
g18
I1
sg19
I0
sg20
I4
sg21
I0
sg22
I0
sg23
I0
sg24
I0
sbssg25
S'\x15\x91\x81ccf\xc8)6\xcfi\xf7b\xaf\xd6o'
p186
ssS'test_grid'
p187
(dp188
g59
(dp189
g73
S'test_grid.html'
p190
sg75
g187
sg77
g13
(g14
g15
NtRp191
(dp192
g18
I1
sg19
I0
sg20
I36
sg21
I0
sg22
I0
sg23
I1
sg24
I0
sbssg68
S'\xb9a\x98\x11+\x06\xeb\xa4\r.\xf6\xda\x15\xe7\xeb\xc1'
p193
ssS'_eclipse_workspace_Sudoku_src_Solver_solve_algorithm'
p194
(dp195
g59
(dp196
S'html_filename'
p197
S'_eclipse_workspace_Sudoku_src_Solver_solve_algorithm.html'
p198
sS'name'
p199
S'C:\\eclipse\\workspace\\Sudoku\\src\\Solver\\solve_algorithm'
p200
sS'nums'
p201
g13
(g14
g15
NtRp202
(dp203
g18
I1
sg19
I0
sg20
I9
sg21
I0
sg22
I0
sg23
I0
sg24
I0
sbssg68
S'\xd6\xf0\xb2)\xfbC\x83&z;\x1f\x833\xb8\xe0\xe1'
p204
ssS'test_txt_file'
p205
(dp206
g59
(dp207
g41
S'test_txt_file.html'
p208
sg43
S'test_txt_file'
p209
sg45
g13
(g14
g15
NtRp210
(dp211
g18
I1
sg19
I0
sg20
I28
sg21
I0
sg22
I0
sg23
I1
sg24
I0
sbssg68
S'g\xceV\xe5 \xd6\xb4d%p{\xe1\x92P\xb6\x9f'
p212
ssS'_eclipse_workspace_Sudoku_src_Solver_brute'
p213
(dp214
g59
(dp215
g73
S'_eclipse_workspace_Sudoku_src_Solver_brute.html'
p216
sg75
S'C:\\eclipse\\workspace\\Sudoku\\src\\Solver\\brute'
p217
sg77
g13
(g14
g15
NtRp218
(dp219
g18
I1
sg19
I0
sg20
I84
sg21
I0
sg22
I0
sg23
I0
sg24
I0
sbssg68
S'\xdd\xa0\xac\xe2\xb1\xb62\\\xf0\x1fl\xfb\x8bg 0'
p220
ssS'_Users_arnold huanca_Eclipse_workspace_Sudoku_src_Main___init__'
p221
(dp222
g6
(dp223
g8
S'_Users_arnold huanca_Eclipse_workspace_Sudoku_src_Main___init__.html'
p224
sg10
S'D:\\Users\\arnold huanca\\Eclipse\\workspace\\Sudoku\\src\\Main\\__init__'
p225
sg12
g13
(g14
g15
NtRp226
(dp227
g18
I1
sg19
I0
sg20
I0
sg21
I0
sg22
I0
sg23
I0
sg24
I0
sbssg25
S'\xb0\xc8pN\xaf>\xa0\xbaz\x144\xe0A9\xb8?'
p228
ssS'_eclipse_workspace_Sudoku_src_File_config_file_xml'
p229
(dp230
g59
(dp231
g73
S'_eclipse_workspace_Sudoku_src_File_config_file_xml.html'
p232
sg75
S'C:\\eclipse\\workspace\\Sudoku\\src\\File\\config_file_xml'
p233
sg77
g13
(g14
g15
NtRp234
(dp235
g18
I1
sg19
I0
sg20
I39
sg21
I0
sg22
I0
sg23
I0
sg24
I0
sbssg68
S'lfxvy.\x01\xd7\xf0\x02!\x9c\xcf\xc9\x98t'
p236
ssS'test_brute'
p237
(dp238
g59
(dp239
g73
S'test_brute.html'
p240
sg75
g237
sg77
g13
(g14
g15
NtRp241
(dp242
g18
I1
sg19
I0
sg20
I24
sg21
I0
sg22
I0
sg23
I1
sg24
I0
sbssg68
S'=\xe7\xce\xd0\x92\xdb\xb1:IS\xbcT\x9f\xde\x87{'
p243
ssS'_Users_arnold huanca_Eclipse_workspace_Sudoku_src_Solver_norvig'
p244
(dp245
g6
(dp246
g136
S'_Users_arnold huanca_Eclipse_workspace_Sudoku_src_Solver_norvig.html'
p247
sg138
S'D:\\Users\\arnold huanca\\Eclipse\\workspace\\Sudoku\\src\\Solver\\norvig'
p248
sg140
g13
(g14
g15
NtRp249
(dp250
g18
I1
sg19
I0
sg20
I51
sg21
I0
sg22
I0
sg23
I0
sg24
I0
sbssg25
S'O\xf5[\x19!\r\xbc\x7f\xa4\xa7\x0e\xa4\xddt\x1c\xa1'
p251
ssS'_eclipse_workspace_Sudoku_src_Main_validate'
p252
(dp253
g59
(dp254
g73
S'_eclipse_workspace_Sudoku_src_Main_validate.html'
p255
sg75
S'C:\\eclipse\\workspace\\Sudoku\\src\\Main\\validate'
p256
sg77
g13
(g14
g15
NtRp257
(dp258
g18
I1
sg19
I0
sg20
I11
sg21
I0
sg22
I0
sg23
I0
sg24
I0
sbssg68
S'y\xcd\x9e\x18\xf5FR\x8b\xa8\x1e\x89)!\xd3\xe5\x0b'
p259
ssS'_eclipse_workspace_Sudoku_src_File___init__'
p260
(dp261
g59
(dp262
g73
S'_eclipse_workspace_Sudoku_src_File___init__.html'
p263
sg75
S'C:\\eclipse\\workspace\\Sudoku\\src\\File\\__init__'
p264
sg77
g13
(g14
g15
NtRp265
(dp266
g18
I1
sg19
I0
sg20
I0
sg21
I0
sg22
I0
sg23
I0
sg24
I0
sbssg68
S'\xb0\xc8pN\xaf>\xa0\xbaz\x144\xe0A9\xb8?'
p267
ssS'_Users_arnold huanca_Eclipse_workspace_Sudoku_src_Solver_brute'
p268
(dp269
g6
(dp270
g8
S'_Users_arnold huanca_Eclipse_workspace_Sudoku_src_Solver_brute.html'
p271
sg10
S'D:\\Users\\arnold huanca\\Eclipse\\workspace\\Sudoku\\src\\Solver\\brute'
p272
sg12
g13
(g14
g15
NtRp273
(dp274
g18
I1
sg19
I0
sg20
I84
sg21
I0
sg22
I0
sg23
I0
sg24
I0
sbssg25
S'\xdd\xa0\xac\xe2\xb1\xb62\\\xf0\x1fl\xfb\x8bg 0'
p275
ssS'_eclipse_workspace_Sudoku_src_Solver_norvig'
p276
(dp277
g59
(dp278
S'html_filename'
p279
S'_eclipse_workspace_Sudoku_src_Solver_norvig.html'
p280
sS'name'
p281
S'C:\\eclipse\\workspace\\Sudoku\\src\\Solver\\norvig'
p282
sS'nums'
p283
g13
(g14
g15
NtRp284
(dp285
g18
I1
sg19
I0
sg20
I51
sg21
I0
sg22
I0
sg23
I0
sg24
I0
sbssg68
S'O\xf5[\x19!\r\xbc\x7f\xa4\xa7\x0e\xa4\xddt\x1c\xa1'
p286
ssS'_eclipse_workspace_Sudoku_src_Solver___init__'
p287
(dp288
g59
(dp289
g73
S'_eclipse_workspace_Sudoku_src_Solver___init__.html'
p290
sg75
S'C:\\eclipse\\workspace\\Sudoku\\src\\Solver\\__init__'
p291
sg77
g13
(g14
g15
NtRp292
(dp293
g18
I1
sg19
I0
sg20
I0
sg21
I0
sg22
I0
sg23
I0
sg24
I0
sbssg68
S'\xb0\xc8pN\xaf>\xa0\xbaz\x144\xe0A9\xb8?'
p294
ssS'_eclipse_workspace_Sudoku_src_Main_grid'
p295
(dp296
g59
(dp297
g73
S'_eclipse_workspace_Sudoku_src_Main_grid.html'
p298
sg75
S'C:\\eclipse\\workspace\\Sudoku\\src\\Main\\grid'
p299
sg77
g13
(g14
g15
NtRp300
(dp301
g18
I1
sg19
I0
sg20
I29
sg21
I0
sg22
I0
sg23
I0
sg24
I0
sbssg68
S'\x01\xfa.I\xdc\xb3?\xb9\xd80\xd5\xb7\x7f`\xa5F'
p302
ssS'_Users_arnold huanca_Eclipse_workspace_Sudoku_src_Main_grid'
p303
(dp304
g6
(dp305
g8
S'_Users_arnold huanca_Eclipse_workspace_Sudoku_src_Main_grid.html'
p306
sg10
S'D:\\Users\\arnold huanca\\Eclipse\\workspace\\Sudoku\\src\\Main\\grid'
p307
sg12
g13
(g14
g15
NtRp308
(dp309
g18
I1
sg19
I0
sg20
I29
sg21
I0
sg22
I0
sg23
I0
sg24
I0
sbssg25
S'\x01\xfa.I\xdc\xb3?\xb9\xd80\xd5\xb7\x7f`\xa5F'
p310
sssS'version'
p311
S'3.6'
p312
sS'settings'
p313
S'1\xda>w\x0c\x99\xf8\xf9y-*\xeb\x80\xe1A\x99'
p314
sS'format'
p315
I1
s.