(dp1
S'files'
p2
(dp3
S'test_integration1_using_both_algorithms'
p4
(dp5
S'index'
p6
(dp7
S'html_filename'
p8
S'test_integration1_using_both_algorithms.html'
p9
sS'name'
p10
S'test_integration1_using_both_algorithms'
p11
sS'nums'
p12
ccopy_reg
_reconstructor
p13
(ccoverage.results
Numbers
p14
c__builtin__
object
p15
NtRp16
(dp17
S'n_files'
p18
I1
sS'n_branches'
p19
I0
sS'n_statements'
p20
I56
sS'n_excluded'
p21
I0
sS'n_partial_branches'
p22
I0
sS'n_missing'
p23
I12
sS'n_missing_branches'
p24
I0
sbssS'hash'
p25
S'T\xe1\x92s\xe94\x9eJ)Z\x18I\xe0>\x8f:'
p26
ssS'_eclipse_workspace_Sudoku_src_File_csv_file'
p27
(dp28
S'index'
p29
(dp30
S'html_filename'
p31
S'_eclipse_workspace_Sudoku_src_File_csv_file.html'
p32
sS'name'
p33
S'C:\\eclipse\\workspace\\Sudoku\\src\\File\\csv_file'
p34
sS'nums'
p35
g13
(g14
g15
NtRp36
(dp37
g18
I1
sg19
I0
sg20
I41
sg21
I0
sg22
I0
sg23
I1
sg24
I0
sbssS'hash'
p38
S'?\x0e_\xbe\x14\x15\x8dA.\x99\xf2\xd0A\x8eQz'
p39
ssS'_eclipse_workspace_Sudoku_src_File_config_file'
p40
(dp41
S'index'
p42
(dp43
S'html_filename'
p44
S'_eclipse_workspace_Sudoku_src_File_config_file.html'
p45
sS'name'
p46
S'C:\\eclipse\\workspace\\Sudoku\\src\\File\\config_file'
p47
sS'nums'
p48
g13
(g14
g15
NtRp49
(dp50
g18
I1
sg19
I0
sg20
I42
sg21
I0
sg22
I0
sg23
I0
sg24
I0
sbssS'hash'
p51
S'x\xf6\x1c(R\xa72\x08\x11&\xc7`\xe9\x8e\xbe/'
p52
ssS'test_csv_file'
p53
(dp54
g29
(dp55
g31
S'test_csv_file.html'
p56
sg33
g53
sg35
g13
(g14
g15
NtRp57
(dp58
g18
I1
sg19
I0
sg20
I79
sg21
I0
sg22
I0
sg23
I1
sg24
I0
sbssg38
S'E8\xf3V\xdb\x89\xb8\xcc\xddynKm\xfb1='
p59
ssS'_eclipse_workspace_Sudoku_src_Main___init__'
p60
(dp61
S'index'
p62
(dp63
S'html_filename'
p64
S'_eclipse_workspace_Sudoku_src_Main___init__.html'
p65
sS'name'
p66
S'C:\\eclipse\\workspace\\Sudoku\\src\\Main\\__init__'
p67
sS'nums'
p68
g13
(g14
g15
NtRp69
(dp70
g18
I1
sg19
I0
sg20
I0
sg21
I0
sg22
I0
sg23
I0
sg24
I0
sbssS'hash'
p71
S'\xb0\xc8pN\xaf>\xa0\xbaz\x144\xe0A9\xb8?'
p72
ssS'__init__'
p73
(dp74
g62
(dp75
g64
S'__init__.html'
p76
sg66
g73
sg68
g13
(g14
g15
NtRp77
(dp78
g18
I1
sg19
I0
sg20
I0
sg21
I0
sg22
I0
sg23
I0
sg24
I0
sbssg71
S'\xb0\xc8pN\xaf>\xa0\xbaz\x144\xe0A9\xb8?'
p79
ssS'_eclipse_workspace_Sudoku_src_File_file'
p80
(dp81
g29
(dp82
g31
S'_eclipse_workspace_Sudoku_src_File_file.html'
p83
sg33
S'C:\\eclipse\\workspace\\Sudoku\\src\\File\\file'
p84
sg35
g13
(g14
g15
NtRp85
(dp86
g18
I1
sg19
I0
sg20
I19
sg21
I0
sg22
I0
sg23
I2
sg24
I0
sbssg38
S'K4,\xc2\xc0\x19\xe2\x91\xbb3\x00\x1c\xa9RtX'
p87
ssS'_eclipse_workspace_Sudoku_src_File_txt_file'
p88
(dp89
S'index'
p90
(dp91
S'html_filename'
p92
S'_eclipse_workspace_Sudoku_src_File_txt_file.html'
p93
sS'name'
p94
S'C:\\eclipse\\workspace\\Sudoku\\src\\File\\txt_file'
p95
sS'nums'
p96
g13
(g14
g15
NtRp97
(dp98
g18
I1
sg19
I0
sg20
I37
sg21
I0
sg22
I0
sg23
I1
sg24
I0
sbssS'hash'
p99
S'\r\xc3\xbb\xb0\x87G\xedc\xb5\r\x82OL\xf1\xc4\x94'
p100
ssS'test_config_file'
p101
(dp102
S'index'
p103
(dp104
g44
S'test_config_file.html'
p105
sg46
g101
sg48
g13
(g14
g15
NtRp106
(dp107
g18
I1
sg19
I0
sg20
I25
sg21
I0
sg22
I0
sg23
I1
sg24
I0
sbssS'hash'
p108
S'\x14u\x8a6\xb8\xb9\xca\x02v\xa6\x94\xfd\x90R\xf8^'
p109
ssS'test_read_xml_config_file'
p110
(dp111
g42
(dp112
g8
S'test_read_xml_config_file.html'
p113
sg10
S'test_read_xml_config_file'
p114
sg12
g13
(g14
g15
NtRp115
(dp116
g18
I1
sg19
I0
sg20
I14
sg21
I0
sg22
I0
sg23
I1
sg24
I0
sbssg51
S'\x8f\x90\x95\xbd\xd6\xad\xb6df\x0b*\xb4\x0b\x95\xe0\xdd'
p117
ssS'_eclipse_workspace_Sudoku_src_File_input_output_file'
p118
(dp119
S'index'
p120
(dp121
g8
S'_eclipse_workspace_Sudoku_src_File_input_output_file.html'
p122
sg10
S'C:\\eclipse\\workspace\\Sudoku\\src\\File\\input_output_file'
p123
sg12
g13
(g14
g15
NtRp124
(dp125
g18
I1
sg19
I0
sg20
I20
sg21
I0
sg22
I0
sg23
I0
sg24
I0
sbssS'hash'
p126
S'\x9d)\xb6\x1cJS\xd1\xc1Q\xfb\xe1(k!"\xb9'
p127
ssS'test_norvig'
p128
(dp129
S'index'
p130
(dp131
S'html_filename'
p132
S'test_norvig.html'
p133
sS'name'
p134
S'test_norvig'
p135
sS'nums'
p136
g13
(g14
g15
NtRp137
(dp138
g18
I1
sg19
I0
sg20
I24
sg21
I0
sg22
I0
sg23
I1
sg24
I0
sbssS'hash'
p139
S'\x94F\xc8B\xa7\x05\x96\xa7E&RL\xfe/&\x1d'
p140
ssS'test_grid'
p141
(dp142
S'index'
p143
(dp144
S'html_filename'
p145
S'test_grid.html'
p146
sS'name'
p147
S'test_grid'
p148
sS'nums'
p149
g13
(g14
g15
NtRp150
(dp151
g18
I1
sg19
I0
sg20
I36
sg21
I0
sg22
I0
sg23
I1
sg24
I0
sbssS'hash'
p152
S'\xb9a\x98\x11+\x06\xeb\xa4\r.\xf6\xda\x15\xe7\xeb\xc1'
p153
ssS'_eclipse_workspace_Sudoku_src_Solver_solve_algorithm'
p154
(dp155
g120
(dp156
g8
S'_eclipse_workspace_Sudoku_src_Solver_solve_algorithm.html'
p157
sg10
S'C:\\eclipse\\workspace\\Sudoku\\src\\Solver\\solve_algorithm'
p158
sg12
g13
(g14
g15
NtRp159
(dp160
g18
I1
sg19
I0
sg20
I8
sg21
I0
sg22
I0
sg23
I1
sg24
I0
sbssg126
S's\xf9J\xe4\x10\x16\xa8\xd4\xe7\n\xaaK\xec\x96\xf1\x02'
p161
ssS'test_txt_file'
p162
(dp163
g90
(dp164
g92
S'test_txt_file.html'
p165
sg94
g162
sg96
g13
(g14
g15
NtRp166
(dp167
g18
I1
sg19
I0
sg20
I20
sg21
I0
sg22
I0
sg23
I1
sg24
I0
sbssg99
S"%\x84\x02-Bq^'\x1d\xbc\x8ah\xe9,\x0b\xd3"
p168
ssS'_eclipse_workspace_Sudoku_src_Solver_brute'
p169
(dp170
g120
(dp171
g64
S'_eclipse_workspace_Sudoku_src_Solver_brute.html'
p172
sg66
S'C:\\eclipse\\workspace\\Sudoku\\src\\Solver\\brute'
p173
sg68
g13
(g14
g15
NtRp174
(dp175
g18
I1
sg19
I0
sg20
I82
sg21
I0
sg22
I0
sg23
I0
sg24
I0
sbssg126
S"C\xfa\xbb'd\xf5\xf1\x83\xb9\xc3\xf9\xe4\xc1\x14\x9c\xfb"
p176
ssS'Test_input_ouput_file'
p177
(dp178
g120
(dp179
S'html_filename'
p180
S'Test_input_ouput_file.html'
p181
sS'name'
p182
S'Test_input_ouput_file'
p183
sS'nums'
p184
g13
(g14
g15
NtRp185
(dp186
g18
I1
sg19
I0
sg20
I12
sg21
I0
sg22
I0
sg23
I1
sg24
I0
sbssg126
S'n\x9e\x03\xa2*\x94\xca\xf5o\x82a\x0c\x92\xc7\xb0&'
p187
ssS'test_brute'
p188
(dp189
g120
(dp190
g64
S'test_brute.html'
p191
sg66
S'test_brute'
p192
sg68
g13
(g14
g15
NtRp193
(dp194
g18
I1
sg19
I0
sg20
I20
sg21
I0
sg22
I0
sg23
I1
sg24
I0
sbssg126
S'yx1\x80\x1a\x8f\xbf\xbd\x1d%\x8f\xde\x1e\xdc\x01r'
p195
ssS'_eclipse_workspace_Sudoku_src_Main_validate'
p196
(dp197
S'index'
p198
(dp199
g132
S'_eclipse_workspace_Sudoku_src_Main_validate.html'
p200
sg134
S'C:\\eclipse\\workspace\\Sudoku\\src\\Main\\validate'
p201
sg136
g13
(g14
g15
NtRp202
(dp203
g18
I1
sg19
I0
sg20
I8
sg21
I0
sg22
I0
sg23
I0
sg24
I0
sbssS'hash'
p204
S'\x02\xee=\xa9#\xc6\xf2\x1c\xa8\xba\xa6\x04z\xc7^\xcf'
p205
ssS'_eclipse_workspace_Sudoku_src_File___init__'
p206
(dp207
g62
(dp208
g64
S'_eclipse_workspace_Sudoku_src_File___init__.html'
p209
sg66
S'C:\\eclipse\\workspace\\Sudoku\\src\\File\\__init__'
p210
sg68
g13
(g14
g15
NtRp211
(dp212
g18
I1
sg19
I0
sg20
I0
sg21
I0
sg22
I0
sg23
I0
sg24
I0
sbssg71
S'\xb0\xc8pN\xaf>\xa0\xbaz\x144\xe0A9\xb8?'
p213
ssS'_eclipse_workspace_Sudoku_src_Solver_norvig'
p214
(dp215
g6
(dp216
g132
S'_eclipse_workspace_Sudoku_src_Solver_norvig.html'
p217
sg134
S'C:\\eclipse\\workspace\\Sudoku\\src\\Solver\\norvig'
p218
sg136
g13
(g14
g15
NtRp219
(dp220
g18
I1
sg19
I0
sg20
I49
sg21
I0
sg22
I0
sg23
I2
sg24
I0
sbssg25
S'\x7fU\x80\x11kZ\xfd\x91i,:\xe0F?W1'
p221
ssS'_eclipse_workspace_Sudoku_src_Solver___init__'
p222
(dp223
g62
(dp224
g64
S'_eclipse_workspace_Sudoku_src_Solver___init__.html'
p225
sg66
S'C:\\eclipse\\workspace\\Sudoku\\src\\Solver\\__init__'
p226
sg68
g13
(g14
g15
NtRp227
(dp228
g18
I1
sg19
I0
sg20
I0
sg21
I0
sg22
I0
sg23
I0
sg24
I0
sbssg71
S'\xb0\xc8pN\xaf>\xa0\xbaz\x144\xe0A9\xb8?'
p229
ssS'_eclipse_workspace_Sudoku_src_Main_grid'
p230
(dp231
g143
(dp232
g145
S'_eclipse_workspace_Sudoku_src_Main_grid.html'
p233
sg147
S'C:\\eclipse\\workspace\\Sudoku\\src\\Main\\grid'
p234
sg149
g13
(g14
g15
NtRp235
(dp236
g18
I1
sg19
I0
sg20
I29
sg21
I0
sg22
I0
sg23
I0
sg24
I0
sbssg152
S'\x01\xfa.I\xdc\xb3?\xb9\xd80\xd5\xb7\x7f`\xa5F'
p237
sssS'version'
p238
S'3.6'
p239
sS'settings'
p240
S'1\xda>w\x0c\x99\xf8\xf9y-*\xeb\x80\xe1A\x99'
p241
sS'format'
p242
I1
s.